******************************************************************************
                  TI ARM Linker PC v16.9.6                     
******************************************************************************
>> Linked Sun May 06 18:39:08 2018

OUTPUT FILE NAME:   <Ae2Can.out>
ENTRY POINT SYMBOL: "_c_int00"  address: 00004a19


MEMORY CONFIGURATION

         name            origin    length      used     unused   attr    fill
----------------------  --------  ---------  --------  --------  ----  --------
  FLASH                 00000000   00010000  000054dc  0000ab24  R  X
  SRAM                  20000000   00006000  000005a8  00005a58  RW X


SEGMENT ALLOCATION MAP

run origin  load origin   length   init length attrs members
----------  ----------- ---------- ----------- ----- -------
00000000    00000000    000054e0   000054e0    r-x
  00000000    00000000    0000026c   0000026c    r-- .intvecs
  0000026c    0000026c    00004c38   00004c38    r-x .text
  00004ea4    00004ea4    000005e0   000005e0    r-- .const
  00005488    00005488    00000058   00000058    r-- .cinit
20000000    20000000    000005a8   00000000    rw-
  20000000    20000000    0000026c   00000000    rw- .vtable
  2000026c    2000026c    00000200   00000000    rw- .stack
  2000046c    2000046c    000000c4   00000000    rw- .bss
  20000530    20000530    00000078   00000000    rw- .data


SECTION ALLOCATION MAP

 output                                  attributes/
section   page    origin      length       input sections
--------  ----  ----------  ----------   ----------------
.intvecs   0    00000000    0000026c     
                  00000000    0000026c     tm4c1231d5pm_startup_ccs.obj (.intvecs)

.text      0    0000026c    00004c38     
                  0000026c    00002b34     main.obj (.text)
                  00002da0    00000990     Loop_Functions.obj (.text)
                  00003730    00000638     UART_Function.obj (.text)
                  00003d68    00000494     CAN_Function.obj (.text)
                  000041fc    000002f8     InitialConfiguration.obj (.text)
                  000044f4    00000160     ADC_Function.obj (.text)
                  00004654    000000fc     rtsv7M4_T_le_v4SPD16_eabi.lib : fd_mul_t2.obj (.text)
                  00004750    0000009c                                   : memcpy_t2.obj (.text)
                  000047ec    0000007a     driverlib.lib : adc.obj (.text:ADCSequenceStepConfigure)
                  00004866    0000007a     rtsv7M4_T_le_v4SPD16_eabi.lib : memset_t2.obj (.text)
                  000048e0    00000070                                   : autoinit.obj (.text)
                  00004950    00000068                                   : copy_decompress_lzss.obj (.text:decompress:lzss)
                  000049b8    00000060     driverlib.lib : timer.obj (.text:TimerConfigure)
                  00004a18    00000054     rtsv7M4_T_le_v4SPD16_eabi.lib : boot.obj (.text)
                  00004a6c    00000054                                   : exit.obj (.text)
                  00004ac0    00000050     driverlib.lib : adc.obj (.text:ADCSequenceConfigure)
                  00004b10    0000004c     rtsv7M4_T_le_v4SPD16_eabi.lib : cpy_tbl.obj (.text)
                  00004b5c    00000046     driverlib.lib : uart.obj (.text:UARTConfigSetExpClk)
                  00004ba2    00000044     rtsv7M4_T_le_v4SPD16_eabi.lib : fd_tou_t2.obj (.text)
                  00004be6    00000040                                   : u_divt2.obj (.text)
                  00004c26    0000002e     driverlib.lib : adc.obj (.text:ADCIntStatus)
                  00004c54    00000020                   : uart.obj (.text:UARTDisable)
                  00004c74    00000020     rtsv7M4_T_le_v4SPD16_eabi.lib : u_tofd_t2.obj (.text)
                  00004c94    0000001e     driverlib.lib : adc.obj (.text:ADCSequenceDataGet)
                  00004cb2    00000018                   : adc.obj (.text:ADCProcessorTrigger)
                  00004cca    00000002     rtsv7M4_T_le_v4SPD16_eabi.lib : i_div0.obj (.text)
                  00004ccc    00000018                                   : args_main.obj (.text)
                  00004ce4    00000014     driverlib.lib : systick.obj (.text:SysTickDisable)
                  00004cf8    00000014                   : systick.obj (.text:SysTickEnable)
                  00004d0c    00000014                   : systick.obj (.text:SysTickIntEnable)
                  00004d20    00000014                   : uart.obj (.text:UARTEnable)
                  00004d34    00000014     rtsv7M4_T_le_v4SPD16_eabi.lib : _lock.obj (.text)
                  00004d48    00000012     driverlib.lib : timer.obj (.text:TimerLoadSet)
                  00004d5a    00000012                   : timer.obj (.text:TimerMatchSet)
                  00004d6c    00000010                   : fpu.obj (.text:FPUEnable)
                  00004d7c    00000010                   : fpu.obj (.text:FPULazyStackingEnable)
                  00004d8c    00000010                   : systick.obj (.text:SysTickPeriodSet)
                  00004d9c    00000010                   : watchdog.obj (.text:WatchdogIntRegister)
                  00004dac    0000000e                   : adc.obj (.text:ADCSequenceDisable)
                  00004dba    0000000e                   : adc.obj (.text:ADCSequenceEnable)
                  00004dc8    0000000e                   : timer.obj (.text:TimerEnable)
                  00004dd6    0000000e                   : uart.obj (.text:UARTCharGetNonBlocking)
                  00004de4    0000000e                   : uart.obj (.text:UARTCharsAvail)
                  00004df2    0000000e     rtsv7M4_T_le_v4SPD16_eabi.lib : copy_decompress_none.obj (.text:decompress:none)
                  00004e00    0000000c     driverlib.lib : watchdog.obj (.text:WatchdogIntTypeSet)
                  00004e0c    0000000c     rtsv7M4_T_le_v4SPD16_eabi.lib : copy_zero_init.obj (.text:decompress:ZI)
                  00004e18    0000000c     tm4c1231d5pm_startup_ccs.obj (.text)
                  00004e24    0000000a     driverlib.lib : adc.obj (.text:ADCIntClear)
                  00004e2e    0000000a                   : uart.obj (.text:UARTCharGet)
                  00004e38    0000000a                   : uart.obj (.text:UARTCharPut)
                  00004e42    0000000a                   : uart.obj (.text:UARTIntStatus)
                  00004e4c    0000000a                   : watchdog.obj (.text:WatchdogEnable)
                  00004e56    0000000a                   : watchdog.obj (.text:WatchdogIntEnable)
                  00004e60    0000000a                   : watchdog.obj (.text:WatchdogIntStatus)
                  00004e6a    0000000a                   : watchdog.obj (.text:WatchdogResetEnable)
                  00004e74    00000008                   : timer.obj (.text:TimerIntEnable)
                  00004e7c    00000008                   : uart.obj (.text:UARTIntEnable)
                  00004e84    00000006     main.obj (.text:SysCtlDelay)
                  00004e8a    00000006     driverlib.lib : watchdog.obj (.text:WatchdogIntClear)
                  00004e90    00000004                   : timer.obj (.text:TimerIntClear)
                  00004e94    00000004                   : uart.obj (.text:UARTIntClear)
                  00004e98    00000004                   : watchdog.obj (.text:WatchdogReloadSet)
                  00004e9c    00000004     rtsv7M4_T_le_v4SPD16_eabi.lib : pre_init.obj (.text)
                  00004ea0    00000002                                   : mpu_init.obj (.text)
                  00004ea2    00000002                                   : startup.obj (.text)

.const     0    00004ea4    000005e0     
                  00004ea4    000001b0     main.obj (.const:g_pppui32XTALtoVCO)
                  00005054    000000d8     main.obj (.const:g_ppui32GPIOIntMapSnowflake)
                  0000512c    000000c0     main.obj (.const:g_ppui32GPIOIntMapBlizzard)
                  000051ec    0000009c     main.obj (.const:g_pui32Regs)
                  00005288    00000090     main.obj (.const:g_pui32GPIOBaseAddrs)
                  00005318    0000006c     main.obj (.const:g_pui32Xtals)
                  00005384    00000030     main.obj (.const:g_sXTALtoMEMTIM)
                  000053b4    00000020     main.obj (.const:g_pui32Priority)
                  000053d4    00000020     main.obj (.const:g_ui16CANBitValues)
                  000053f4    00000014     main.obj (.const:g_pui32Dii16Regs)
                  00005408    00000014     main.obj (.const:g_pui32EnRegs)
                  0000541c    00000014     main.obj (.const:g_pui32PendRegs)
                  00005430    00000014     main.obj (.const:g_pui32UnpendRegs)
                  00005444    00000012     UART_Function.obj (.const:.string)
                  00005456    00000002     --HOLE-- [fill = 0]
                  00005458    0000000c     UART_Function.obj (.const:g_ui32UARTBase)
                  00005464    0000000c     UART_Function.obj (.const:g_ui32UARTPeriph)
                  00005470    00000008     main.obj (.const:g_pui32VCOFrequencies)
                  00005478    00000008     main.obj (.const)
                  00005480    00000004     UART_Function.obj (.const)

.cinit     0    00005488    00000058     
                  00005488    0000001f     (.cinit..data.load) [load image, compression = lzss]
                  000054a7    00000001     --HOLE-- [fill = 0]
                  000054a8    0000000c     (__TI_handler_table)
                  000054b4    00000004     --HOLE-- [fill = 0]
                  000054b8    00000008     (.cinit..bss.load) [load image, compression = zero_init]
                  000054c0    00000008     (.cinit..vtable.load) [load image, compression = zero_init]
                  000054c8    00000018     (__TI_cinit_table)

.init_array 
*          0    00000000    00000000     UNINITIALIZED

.vtable    0    20000000    0000026c     UNINITIALIZED
                  20000000    0000026c     main.obj (.vtable)

.stack     0    2000026c    00000200     UNINITIALIZED
                  2000026c    00000200     --HOLE--

.bss       0    2000046c    000000c4     UNINITIALIZED
                  2000046c    0000003c     (.common:Received_Uart_Data)
                  200004a8    0000003c     (.common:Register_Uart)
                  200004e4    00000014     (.common:canRxMessage)
                  200004f8    00000014     (.common:canTxMessage)
                  2000050c    00000010     (.common:analogValues)
                  2000051c    00000008     (.common:Received_Can_Data)
                  20000524    00000008     (.common:Register_Can)
                  2000052c    00000004     (.common:canRxBuffer)

.data      0    20000530    00000078     UNINITIALIZED
                  20000530    00000055     main.obj (.data)
                  20000585    00000003     --HOLE--
                  20000588    0000000c     rtsv7M4_T_le_v4SPD16_eabi.lib : exit.obj (.data:$O1$$)
                  20000594    00000008                                   : _lock.obj (.data:$O1$$)
                  2000059c    00000005     UART_Function.obj (.data)
                  200005a1    00000003     --HOLE--
                  200005a4    00000004     rtsv7M4_T_le_v4SPD16_eabi.lib : stkdepth_vars.obj (.data)

MODULE SUMMARY

       Module                         code    ro data   rw data
       ------                         ----    -------   -------
    .\
       main.obj                       11066   1456      901    
       Loop_Functions.obj             2448    0         0      
       UART_Function.obj              1592    46        5      
       CAN_Function.obj               1172    0         0      
       InitialConfiguration.obj       760     0         0      
       tm4c1231d5pm_startup_ccs.obj   12      620       0      
       ADC_Function.obj               352     0         0      
    +--+------------------------------+-------+---------+---------+
       Total:                         17402   2122      906    
                                                               
    D:/CodeComposer/ti/TivaWare_C_Series-2.1.4.178/driverlib/ccs/Debug/driverlib.lib
       adc.obj                        340     0         0      
       uart.obj                       192     0         0      
       timer.obj                      158     0         0      
       watchdog.obj                   78      0         0      
       systick.obj                    76      0         0      
       fpu.obj                        32      0         0      
    +--+------------------------------+-------+---------+---------+
       Total:                         876     0         0      
                                                               
    D:\CodeComposer\ti\ccsv7\tools\compiler\ti-cgt-arm_16.9.6.LTS\lib\rtsv7M4_T_le_v4SPD16_eabi.lib
       fd_mul_t2.obj                  252     0         0      
       memcpy_t2.obj                  156     0         0      
       memset_t2.obj                  122     0         0      
       autoinit.obj                   112     0         0      
       copy_decompress_lzss.obj       104     0         0      
       exit.obj                       84      0         12     
       boot.obj                       84      0         0      
       cpy_tbl.obj                    76      0         0      
       fd_tou_t2.obj                  68      0         0      
       u_divt2.obj                    64      0         0      
       u_tofd_t2.obj                  32      0         0      
       _lock.obj                      20      0         8      
       args_main.obj                  24      0         0      
       copy_decompress_none.obj       14      0         0      
       copy_zero_init.obj             12      0         0      
       pre_init.obj                   4       0         0      
       stkdepth_vars.obj              0       0         4      
       i_div0.obj                     2       0         0      
       mpu_init.obj                   2       0         0      
       startup.obj                    2       0         0      
    +--+------------------------------+-------+---------+---------+
       Total:                         1234    0         24     
                                                               
       Stack:                         0       0         512    
       Linker Generated:              0       83        0      
    +--+------------------------------+-------+---------+---------+
       Grand Total:                   19512   2205      1442   


LINKER GENERATED COPY TABLES

__TI_cinit_table @ 000054c8 records: 3, size/record: 8, table size: 24
	.data: load addr=00005488, load size=0000001f bytes, run addr=20000530, run size=00000078 bytes, compression=lzss
	.bss: load addr=000054b8, load size=00000008 bytes, run addr=2000046c, run size=000000c4 bytes, compression=zero_init
	.vtable: load addr=000054c0, load size=00000008 bytes, run addr=20000000, run size=0000026c bytes, compression=zero_init


LINKER GENERATED HANDLER TABLE

__TI_handler_table @ 000054a8 records: 3, size/record: 4, table size: 12
	index: 0, handler: __TI_zero_init
	index: 1, handler: __TI_decompress_lzss
	index: 2, handler: __TI_decompress_none


GLOBAL SYMBOLS: SORTED ALPHABETICALLY BY Name 

address   name                            
-------   ----                            
000044f5  ADCInit                         
00004e25  ADCIntClear                     
00004c27  ADCIntStatus                    
00004cb3  ADCProcessorTrigger             
00004ac1  ADCSequenceConfigure            
00004c95  ADCSequenceDataGet              
00004dad  ADCSequenceDisable              
00004dbb  ADCSequenceEnable               
000047ed  ADCSequenceStepConfigure        
20000550  BatteryCurrent1                 
20000551  BatteryCurrent2                 
20000554  BatteryHeat1                    
20000555  BatteryHeat2                    
20000552  BatteryVoltage1                 
20000553  BatteryVoltage2                 
00004a6d  C$$EXIT                         
000017f9  CANBitRateSet                   
0000178d  CANBitTimingGet                 
000018bf  CANBitTimingSet                 
00001775  CANDisable                      
0000175d  CANEnable                       
00001b0b  CANErrCntrGet                   
000016e1  CANInit                         
000019fb  CANIntClear                     
0000199b  CANIntDisable                   
00001985  CANIntEnable                    
00003ddb  CANIntHandler                   
0000194d  CANIntRegister                  
000019b1  CANIntStatus                    
0000196b  CANIntUnregister                
00001fdd  CANMessageClear                 
00001dd3  CANMessageGet                   
00001b41  CANMessageSet                   
00001a67  CANRetryGet                     
00001a35  CANRetrySet                     
00001a85  CANStatusGet                    
000002a1  CPUbasepriGet                   
00000293  CPUbasepriSet                   
0000026d  CPUcpsid                        
00000283  CPUcpsie                        
00000279  CPUprimask                      
0000028f  CPUwfi                          
00003d69  CanInit                         
00003eb5  CanReceived                     
000040b9  CanWrite                        
20000530  Device_Address                  
00004d6d  FPUEnable                       
00004d7d  FPULazyStackingEnable           
00002b85  GPIOADCTriggerDisable           
00002b67  GPIOADCTriggerEnable            
00002b49  GPIODMATriggerDisable           
00002b2b  GPIODMATriggerEnable            
000020cb  GPIODirModeGet                  
0000206f  GPIODirModeSet                  
0000263b  GPIOIntClear                    
000025ff  GPIOIntDisable                  
000025e5  GPIOIntEnable                   
0000264f  GPIOIntRegister                 
00002687  GPIOIntRegisterPin              
00002619  GPIOIntStatus                   
000021bb  GPIOIntTypeGet                  
00002117  GPIOIntTypeSet                  
0000266d  GPIOIntUnregister               
000026b5  GPIOIntUnregisterPin            
00002493  GPIOPadConfigGet                
00002259  GPIOPadConfigSet                
00002acd  GPIOPinConfigure                
000026d9  GPIOPinRead                     
00002711  GPIOPinTypeADC                  
00002735  GPIOPinTypeCAN                  
00002759  GPIOPinTypeComparator           
0000277d  GPIOPinTypeComparatorOutput     
000027a1  GPIOPinTypeDIVSCLK              
000027c5  GPIOPinTypeEPI                  
000027e9  GPIOPinTypeEthernetLED          
0000280d  GPIOPinTypeEthernetMII          
00002831  GPIOPinTypeGPIOInput            
00002855  GPIOPinTypeGPIOOutput           
00002879  GPIOPinTypeGPIOOutputOD         
0000289d  GPIOPinTypeHibernateRTCCLK      
000028c1  GPIOPinTypeI2C                  
000028e5  GPIOPinTypeI2CSCL               
00002909  GPIOPinTypeLCD                  
0000292d  GPIOPinTypeOneWire              
00002951  GPIOPinTypePWM                  
00002975  GPIOPinTypeQEI                  
00002999  GPIOPinTypeSSI                  
000029bd  GPIOPinTypeTimer                
000029e1  GPIOPinTypeTrace                
00002a05  GPIOPinTypeUART                 
00002a29  GPIOPinTypeUSBAnalog            
00002a4d  GPIOPinTypeUSBDigital           
00002a71  GPIOPinTypeWakeHigh             
00002a97  GPIOPinTypeWakeLow              
00002abd  GPIOPinWakeStatus               
000026f1  GPIOPinWrite                    
000045af  GetADCResults                   
000041fd  InitMotorPwm                    
00004299  InitialConfiguration            
0000046b  IntDisable                      
000003f9  IntEnable                       
000004dd  IntIsEnabled                    
000002bd  IntMasterDisable                
000002ad  IntMasterEnable                 
000005d1  IntPendClear                    
00000561  IntPendSet                      
000003d5  IntPriorityGet                  
0000034d  IntPriorityGroupingGet          
00000333  IntPriorityGroupingSet          
0000062b  IntPriorityMaskGet              
0000061f  IntPriorityMaskSet              
00000385  IntPrioritySet                  
000002cd  IntRegister                     
00000633  IntTrigger                      
0000031f  IntUnregister                   
00004475  LedFlash                        
000034b3  LoopFunction                    
0000363d  MotorDrive                      
0000368f  MotorStop                       
0000341b  PWMClockGet                     
000033fb  PWMClockSet                     
00002f45  PWMDeadBandDisable              
00002f0d  PWMDeadBandEnable               
000032c1  PWMFaultIntClear                
000032f3  PWMFaultIntClearExt             
000031db  PWMFaultIntRegister             
000031f9  PWMFaultIntUnregister           
00002da1  PWMGenConfigure                 
00002e5f  PWMGenDisable                   
00002e45  PWMGenEnable                    
000033c5  PWMGenFaultClear                
00003311  PWMGenFaultConfigure            
0000338f  PWMGenFaultStatus               
0000336b  PWMGenFaultTriggerGet           
00003341  PWMGenFaultTriggerSet           
00003279  PWMGenIntClear                  
0000314d  PWMGenIntRegister               
0000324f  PWMGenIntStatus                 
00003231  PWMGenIntTrigDisable            
00003213  PWMGenIntTrigEnable             
00003175  PWMGenIntUnregister             
00002e1b  PWMGenPeriodGet                 
00002deb  PWMGenPeriodSet                 
000032a9  PWMIntDisable                   
00003291  PWMIntEnable                    
000032d3  PWMIntStatus                    
0000301b  PWMOutputFault                  
00002fe9  PWMOutputFaultLevel             
00002fb7  PWMOutputInvert                 
00002f85  PWMOutputState                  
00003445  PWMOutputUpdateMode             
00002ec3  PWMPulseWidthGet                
00002e79  PWMPulseWidthSet                
00002f73  PWMSyncTimeBase                 
00002f61  PWMSyncUpdate                   
00002c3d  PortCIntHandler                 
00002bcf  PortEIntHandler                 
2000051c  Received_Can_Data               
2000046c  Received_Uart_Data              
20000524  Register_Can                    
200004a8  Register_Uart                   
00004e19  ResetISR                        
UNDEFED   SHT$$INIT_ARRAY$$Base           
UNDEFED   SHT$$INIT_ARRAY$$Limit          
000015a9  SysCtlAltClkConfig              
00000cd1  SysCtlClockFreqSet              
00001199  SysCtlClockGet                  
0000158d  SysCtlClockOutConfig            
00000fc9  SysCtlClockSet                  
00000bd5  SysCtlDeepSleep                 
0000135d  SysCtlDeepSleepClockConfigSet   
0000133f  SysCtlDeepSleepClockSet         
00000bb5  SysCtlDeepSleepPowerSet         
00004e85  SysCtlDelay                     
0000074f  SysCtlFlashSectorSizeGet        
00000723  SysCtlFlashSizeGet              
00001433  SysCtlGPIOAHBDisable            
00001417  SysCtlGPIOAHBEnable             
00000b49  SysCtlIntClear                  
00000b35  SysCtlIntDisable                
00000b1d  SysCtlIntEnable                 
00000af9  SysCtlIntRegister               
00000b59  SysCtlIntStatus                 
00000b0d  SysCtlIntUnregister             
00000b9b  SysCtlLDODeepSleepGet           
00000b8b  SysCtlLDODeepSleepSet           
00000b85  SysCtlLDOSleepGet               
00000b75  SysCtlLDOSleepSet               
00000c0b  SysCtlMOSCConfigSet             
00001571  SysCtlNMIClear                  
0000155d  SysCtlNMIStatus                 
00000c21  SysCtlPIOSCCalibrate            
00001401  SysCtlPWMClockGet               
000013e7  SysCtlPWMClockSet               
00000aa1  SysCtlPeripheralClockGating     
00000a61  SysCtlPeripheralDeepSleepDisable
00000a09  SysCtlPeripheralDeepSleepEnable 
00000949  SysCtlPeripheralDisable         
00000905  SysCtlPeripheralEnable          
00000839  SysCtlPeripheralPowerOff        
000007f9  SysCtlPeripheralPowerOn         
00000779  SysCtlPeripheralPresent         
000007b9  SysCtlPeripheralReady           
00000879  SysCtlPeripheralReset           
000009cd  SysCtlPeripheralSleepDisable    
0000098d  SysCtlPeripheralSleepEnable     
00000bc5  SysCtlReset                     
00000c81  SysCtlResetBehaviorGet          
00000c71  SysCtlResetBehaviorSet          
00000bf7  SysCtlResetCauseClear           
00000bf1  SysCtlResetCauseGet             
00000719  SysCtlSRAMSizeGet               
00000bcd  SysCtlSleep                     
00000ba1  SysCtlSleepPowerSet             
0000145b  SysCtlUSBPLLDisable             
0000144f  SysCtlUSBPLLEnable              
000014a1  SysCtlVCOGet                    
00001489  SysCtlVoltageEventClear         
0000146d  SysCtlVoltageEventConfig        
0000147d  SysCtlVoltageEventStatus        
00004ce5  SysTickDisable                  
00004cf9  SysTickEnable                   
00004d0d  SysTickIntEnable                
00002ba3  SysTickIntHandler               
00004d8d  SysTickPeriodSet                
000049b9  TimerConfigure                  
00004dc9  TimerEnable                     
00004263  TimerInit                       
00004e91  TimerIntClear                   
00004e75  TimerIntEnable                  
00004d49  TimerLoadSet                    
00004d5b  TimerMatchSet                   
00002ba5  TimerTick                       
00004e2f  UARTCharGet                     
00004dd7  UARTCharGetNonBlocking          
00004e39  UARTCharPut                     
00004de5  UARTCharsAvail                  
00004b5d  UARTConfigSetExpClk             
00004c55  UARTDisable                     
00004d21  UARTEnable                      
00004e95  UARTIntClear                    
00004e7d  UARTIntEnable                   
00002cab  UARTIntHandler                  
00004e43  UARTIntStatus                   
00003731  UARTStdioConfig                 
00003877  UARTgetc                        
000037bd  UARTgets                        
00003b97  UARTprintf                      
0000389d  UARTvprintf                     
00003777  UARTwrite                       
00003bbb  UartInit                        
00003bff  UartReceived                    
20000561  Uart_Data_received              
00004e4d  WatchdogEnable                  
00004e8b  WatchdogIntClear                
00004e57  WatchdogIntEnable               
00002d07  WatchdogIntHandler              
00004d9d  WatchdogIntRegister             
00004e61  WatchdogIntStatus               
00004e01  WatchdogIntTypeSet              
00004e99  WatchdogReloadSet               
00004e6b  WatchdogResetEnable             
2000046c  __STACK_END                     
00000200  __STACK_SIZE                    
2000046c  __STACK_TOP                     
000054c8  __TI_CINIT_Base                 
000054e0  __TI_CINIT_Limit                
000054a8  __TI_Handler_Table_Base         
000054b4  __TI_Handler_Table_Limit        
000048e1  __TI_auto_init                  
20000588  __TI_cleanup_ptr                
00004951  __TI_decompress_lzss            
00004df3  __TI_decompress_none            
2000058c  __TI_dtors_ptr                  
20000590  __TI_enable_exit_profile_output 
ffffffff  __TI_pprof_out_hndl             
ffffffff  __TI_prof_data_size             
ffffffff  __TI_prof_data_start            
00000000  __TI_static_base__              
00004e0d  __TI_zero_init                  
00004ba3  __aeabi_d2uiz                   
00004655  __aeabi_dmul                    
00004ccb  __aeabi_idiv0                   
00004867  __aeabi_memclr                  
00004867  __aeabi_memclr4                 
00004867  __aeabi_memclr8                 
00004751  __aeabi_memcpy                  
00004751  __aeabi_memcpy4                 
00004751  __aeabi_memcpy8                 
00004869  __aeabi_memset                  
00004869  __aeabi_memset4                 
00004869  __aeabi_memset8                 
00004c75  __aeabi_ui2d                    
00004be7  __aeabi_uidiv                   
00004be7  __aeabi_uidivmod                
ffffffff  __binit__                       
ffffffff  __c_args__                      
00004ea1  __mpu_init                      
2000026c  __stack                         
00004ccd  _args_main                      
00004a19  _c_int00                        
20000594  _lock                           
00004d43  _nop                            
00004d3b  _register_lock                  
00004d35  _register_unlock                
00004ea3  _system_post_cinit              
00004e9d  _system_pre_init                
20000598  _unlock                         
00004a71  abort                           
2000050c  analogValues                    
ffffffff  binit                           
20000560  canAddressFrom                  
2000055f  canAddressTo                    
2000055e  canCategory                     
2000052c  canRxBuffer                     
200004e4  canRxMessage                    
200004f8  canTxMessage                    
00004b11  copy_in                         
20000558  counter                         
20000578  curEncoder                      
00004a79  exit                            
20000000  g_pfnRAMVectors                 
00000000  g_pfnVectors                    
2000055d  isErrFlag                       
20000584  isErrorSys                      
2000055c  isRxFlag                        
20000574  lastEncoder                     
20000568  loopCounter                     
20000580  mSeconds                        
2000056c  mVoltage                        
00002d33  main                            
200005a4  main_func_sp                    
00004751  memcpy                          
0000486f  memset                          
20000531  mosfetHeat1                     
20000532  mosfetHeat2                     
20000533  motorControllerHeat1            
20000534  motorControllerHeat2            
20000548  motorEncoder                    
20000538  period                          
2000053c  speed                           
20000535  speedMotor1                     
20000536  speedMotor2                     
2000054c  speedValue                      
20000540  statBreak                       
20000544  statDeadSwitch                  
20000564  uartDataCounter                 
20000570  ui32C                           
2000057c  wheelCounter                    


GLOBAL SYMBOLS: SORTED BY Symbol Address 

address   name                            
-------   ----                            
00000000  __TI_static_base__              
00000000  g_pfnVectors                    
00000200  __STACK_SIZE                    
0000026d  CPUcpsid                        
00000279  CPUprimask                      
00000283  CPUcpsie                        
0000028f  CPUwfi                          
00000293  CPUbasepriSet                   
000002a1  CPUbasepriGet                   
000002ad  IntMasterEnable                 
000002bd  IntMasterDisable                
000002cd  IntRegister                     
0000031f  IntUnregister                   
00000333  IntPriorityGroupingSet          
0000034d  IntPriorityGroupingGet          
00000385  IntPrioritySet                  
000003d5  IntPriorityGet                  
000003f9  IntEnable                       
0000046b  IntDisable                      
000004dd  IntIsEnabled                    
00000561  IntPendSet                      
000005d1  IntPendClear                    
0000061f  IntPriorityMaskSet              
0000062b  IntPriorityMaskGet              
00000633  IntTrigger                      
00000719  SysCtlSRAMSizeGet               
00000723  SysCtlFlashSizeGet              
0000074f  SysCtlFlashSectorSizeGet        
00000779  SysCtlPeripheralPresent         
000007b9  SysCtlPeripheralReady           
000007f9  SysCtlPeripheralPowerOn         
00000839  SysCtlPeripheralPowerOff        
00000879  SysCtlPeripheralReset           
00000905  SysCtlPeripheralEnable          
00000949  SysCtlPeripheralDisable         
0000098d  SysCtlPeripheralSleepEnable     
000009cd  SysCtlPeripheralSleepDisable    
00000a09  SysCtlPeripheralDeepSleepEnable 
00000a61  SysCtlPeripheralDeepSleepDisable
00000aa1  SysCtlPeripheralClockGating     
00000af9  SysCtlIntRegister               
00000b0d  SysCtlIntUnregister             
00000b1d  SysCtlIntEnable                 
00000b35  SysCtlIntDisable                
00000b49  SysCtlIntClear                  
00000b59  SysCtlIntStatus                 
00000b75  SysCtlLDOSleepSet               
00000b85  SysCtlLDOSleepGet               
00000b8b  SysCtlLDODeepSleepSet           
00000b9b  SysCtlLDODeepSleepGet           
00000ba1  SysCtlSleepPowerSet             
00000bb5  SysCtlDeepSleepPowerSet         
00000bc5  SysCtlReset                     
00000bcd  SysCtlSleep                     
00000bd5  SysCtlDeepSleep                 
00000bf1  SysCtlResetCauseGet             
00000bf7  SysCtlResetCauseClear           
00000c0b  SysCtlMOSCConfigSet             
00000c21  SysCtlPIOSCCalibrate            
00000c71  SysCtlResetBehaviorSet          
00000c81  SysCtlResetBehaviorGet          
00000cd1  SysCtlClockFreqSet              
00000fc9  SysCtlClockSet                  
00001199  SysCtlClockGet                  
0000133f  SysCtlDeepSleepClockSet         
0000135d  SysCtlDeepSleepClockConfigSet   
000013e7  SysCtlPWMClockSet               
00001401  SysCtlPWMClockGet               
00001417  SysCtlGPIOAHBEnable             
00001433  SysCtlGPIOAHBDisable            
0000144f  SysCtlUSBPLLEnable              
0000145b  SysCtlUSBPLLDisable             
0000146d  SysCtlVoltageEventConfig        
0000147d  SysCtlVoltageEventStatus        
00001489  SysCtlVoltageEventClear         
000014a1  SysCtlVCOGet                    
0000155d  SysCtlNMIStatus                 
00001571  SysCtlNMIClear                  
0000158d  SysCtlClockOutConfig            
000015a9  SysCtlAltClkConfig              
000016e1  CANInit                         
0000175d  CANEnable                       
00001775  CANDisable                      
0000178d  CANBitTimingGet                 
000017f9  CANBitRateSet                   
000018bf  CANBitTimingSet                 
0000194d  CANIntRegister                  
0000196b  CANIntUnregister                
00001985  CANIntEnable                    
0000199b  CANIntDisable                   
000019b1  CANIntStatus                    
000019fb  CANIntClear                     
00001a35  CANRetrySet                     
00001a67  CANRetryGet                     
00001a85  CANStatusGet                    
00001b0b  CANErrCntrGet                   
00001b41  CANMessageSet                   
00001dd3  CANMessageGet                   
00001fdd  CANMessageClear                 
0000206f  GPIODirModeSet                  
000020cb  GPIODirModeGet                  
00002117  GPIOIntTypeSet                  
000021bb  GPIOIntTypeGet                  
00002259  GPIOPadConfigSet                
00002493  GPIOPadConfigGet                
000025e5  GPIOIntEnable                   
000025ff  GPIOIntDisable                  
00002619  GPIOIntStatus                   
0000263b  GPIOIntClear                    
0000264f  GPIOIntRegister                 
0000266d  GPIOIntUnregister               
00002687  GPIOIntRegisterPin              
000026b5  GPIOIntUnregisterPin            
000026d9  GPIOPinRead                     
000026f1  GPIOPinWrite                    
00002711  GPIOPinTypeADC                  
00002735  GPIOPinTypeCAN                  
00002759  GPIOPinTypeComparator           
0000277d  GPIOPinTypeComparatorOutput     
000027a1  GPIOPinTypeDIVSCLK              
000027c5  GPIOPinTypeEPI                  
000027e9  GPIOPinTypeEthernetLED          
0000280d  GPIOPinTypeEthernetMII          
00002831  GPIOPinTypeGPIOInput            
00002855  GPIOPinTypeGPIOOutput           
00002879  GPIOPinTypeGPIOOutputOD         
0000289d  GPIOPinTypeHibernateRTCCLK      
000028c1  GPIOPinTypeI2C                  
000028e5  GPIOPinTypeI2CSCL               
00002909  GPIOPinTypeLCD                  
0000292d  GPIOPinTypeOneWire              
00002951  GPIOPinTypePWM                  
00002975  GPIOPinTypeQEI                  
00002999  GPIOPinTypeSSI                  
000029bd  GPIOPinTypeTimer                
000029e1  GPIOPinTypeTrace                
00002a05  GPIOPinTypeUART                 
00002a29  GPIOPinTypeUSBAnalog            
00002a4d  GPIOPinTypeUSBDigital           
00002a71  GPIOPinTypeWakeHigh             
00002a97  GPIOPinTypeWakeLow              
00002abd  GPIOPinWakeStatus               
00002acd  GPIOPinConfigure                
00002b2b  GPIODMATriggerEnable            
00002b49  GPIODMATriggerDisable           
00002b67  GPIOADCTriggerEnable            
00002b85  GPIOADCTriggerDisable           
00002ba3  SysTickIntHandler               
00002ba5  TimerTick                       
00002bcf  PortEIntHandler                 
00002c3d  PortCIntHandler                 
00002cab  UARTIntHandler                  
00002d07  WatchdogIntHandler              
00002d33  main                            
00002da1  PWMGenConfigure                 
00002deb  PWMGenPeriodSet                 
00002e1b  PWMGenPeriodGet                 
00002e45  PWMGenEnable                    
00002e5f  PWMGenDisable                   
00002e79  PWMPulseWidthSet                
00002ec3  PWMPulseWidthGet                
00002f0d  PWMDeadBandEnable               
00002f45  PWMDeadBandDisable              
00002f61  PWMSyncUpdate                   
00002f73  PWMSyncTimeBase                 
00002f85  PWMOutputState                  
00002fb7  PWMOutputInvert                 
00002fe9  PWMOutputFaultLevel             
0000301b  PWMOutputFault                  
0000314d  PWMGenIntRegister               
00003175  PWMGenIntUnregister             
000031db  PWMFaultIntRegister             
000031f9  PWMFaultIntUnregister           
00003213  PWMGenIntTrigEnable             
00003231  PWMGenIntTrigDisable            
0000324f  PWMGenIntStatus                 
00003279  PWMGenIntClear                  
00003291  PWMIntEnable                    
000032a9  PWMIntDisable                   
000032c1  PWMFaultIntClear                
000032d3  PWMIntStatus                    
000032f3  PWMFaultIntClearExt             
00003311  PWMGenFaultConfigure            
00003341  PWMGenFaultTriggerSet           
0000336b  PWMGenFaultTriggerGet           
0000338f  PWMGenFaultStatus               
000033c5  PWMGenFaultClear                
000033fb  PWMClockSet                     
0000341b  PWMClockGet                     
00003445  PWMOutputUpdateMode             
000034b3  LoopFunction                    
0000363d  MotorDrive                      
0000368f  MotorStop                       
00003731  UARTStdioConfig                 
00003777  UARTwrite                       
000037bd  UARTgets                        
00003877  UARTgetc                        
0000389d  UARTvprintf                     
00003b97  UARTprintf                      
00003bbb  UartInit                        
00003bff  UartReceived                    
00003d69  CanInit                         
00003ddb  CANIntHandler                   
00003eb5  CanReceived                     
000040b9  CanWrite                        
000041fd  InitMotorPwm                    
00004263  TimerInit                       
00004299  InitialConfiguration            
00004475  LedFlash                        
000044f5  ADCInit                         
000045af  GetADCResults                   
00004655  __aeabi_dmul                    
00004751  __aeabi_memcpy                  
00004751  __aeabi_memcpy4                 
00004751  __aeabi_memcpy8                 
00004751  memcpy                          
000047ed  ADCSequenceStepConfigure        
00004867  __aeabi_memclr                  
00004867  __aeabi_memclr4                 
00004867  __aeabi_memclr8                 
00004869  __aeabi_memset                  
00004869  __aeabi_memset4                 
00004869  __aeabi_memset8                 
0000486f  memset                          
000048e1  __TI_auto_init                  
00004951  __TI_decompress_lzss            
000049b9  TimerConfigure                  
00004a19  _c_int00                        
00004a6d  C$$EXIT                         
00004a71  abort                           
00004a79  exit                            
00004ac1  ADCSequenceConfigure            
00004b11  copy_in                         
00004b5d  UARTConfigSetExpClk             
00004ba3  __aeabi_d2uiz                   
00004be7  __aeabi_uidiv                   
00004be7  __aeabi_uidivmod                
00004c27  ADCIntStatus                    
00004c55  UARTDisable                     
00004c75  __aeabi_ui2d                    
00004c95  ADCSequenceDataGet              
00004cb3  ADCProcessorTrigger             
00004ccb  __aeabi_idiv0                   
00004ccd  _args_main                      
00004ce5  SysTickDisable                  
00004cf9  SysTickEnable                   
00004d0d  SysTickIntEnable                
00004d21  UARTEnable                      
00004d35  _register_unlock                
00004d3b  _register_lock                  
00004d43  _nop                            
00004d49  TimerLoadSet                    
00004d5b  TimerMatchSet                   
00004d6d  FPUEnable                       
00004d7d  FPULazyStackingEnable           
00004d8d  SysTickPeriodSet                
00004d9d  WatchdogIntRegister             
00004dad  ADCSequenceDisable              
00004dbb  ADCSequenceEnable               
00004dc9  TimerEnable                     
00004dd7  UARTCharGetNonBlocking          
00004de5  UARTCharsAvail                  
00004df3  __TI_decompress_none            
00004e01  WatchdogIntTypeSet              
00004e0d  __TI_zero_init                  
00004e19  ResetISR                        
00004e25  ADCIntClear                     
00004e2f  UARTCharGet                     
00004e39  UARTCharPut                     
00004e43  UARTIntStatus                   
00004e4d  WatchdogEnable                  
00004e57  WatchdogIntEnable               
00004e61  WatchdogIntStatus               
00004e6b  WatchdogResetEnable             
00004e75  TimerIntEnable                  
00004e7d  UARTIntEnable                   
00004e85  SysCtlDelay                     
00004e8b  WatchdogIntClear                
00004e91  TimerIntClear                   
00004e95  UARTIntClear                    
00004e99  WatchdogReloadSet               
00004e9d  _system_pre_init                
00004ea1  __mpu_init                      
00004ea3  _system_post_cinit              
000054a8  __TI_Handler_Table_Base         
000054b4  __TI_Handler_Table_Limit        
000054c8  __TI_CINIT_Base                 
000054e0  __TI_CINIT_Limit                
20000000  g_pfnRAMVectors                 
2000026c  __stack                         
2000046c  Received_Uart_Data              
2000046c  __STACK_END                     
2000046c  __STACK_TOP                     
200004a8  Register_Uart                   
200004e4  canRxMessage                    
200004f8  canTxMessage                    
2000050c  analogValues                    
2000051c  Received_Can_Data               
20000524  Register_Can                    
2000052c  canRxBuffer                     
20000530  Device_Address                  
20000531  mosfetHeat1                     
20000532  mosfetHeat2                     
20000533  motorControllerHeat1            
20000534  motorControllerHeat2            
20000535  speedMotor1                     
20000536  speedMotor2                     
20000538  period                          
2000053c  speed                           
20000540  statBreak                       
20000544  statDeadSwitch                  
20000548  motorEncoder                    
2000054c  speedValue                      
20000550  BatteryCurrent1                 
20000551  BatteryCurrent2                 
20000552  BatteryVoltage1                 
20000553  BatteryVoltage2                 
20000554  BatteryHeat1                    
20000555  BatteryHeat2                    
20000558  counter                         
2000055c  isRxFlag                        
2000055d  isErrFlag                       
2000055e  canCategory                     
2000055f  canAddressTo                    
20000560  canAddressFrom                  
20000561  Uart_Data_received              
20000564  uartDataCounter                 
20000568  loopCounter                     
2000056c  mVoltage                        
20000570  ui32C                           
20000574  lastEncoder                     
20000578  curEncoder                      
2000057c  wheelCounter                    
20000580  mSeconds                        
20000584  isErrorSys                      
20000588  __TI_cleanup_ptr                
2000058c  __TI_dtors_ptr                  
20000590  __TI_enable_exit_profile_output 
20000594  _lock                           
20000598  _unlock                         
200005a4  main_func_sp                    
ffffffff  __TI_pprof_out_hndl             
ffffffff  __TI_prof_data_size             
ffffffff  __TI_prof_data_start            
ffffffff  __binit__                       
ffffffff  __c_args__                      
ffffffff  binit                           
UNDEFED   SHT$$INIT_ARRAY$$Base           
UNDEFED   SHT$$INIT_ARRAY$$Limit          

[349 symbols]
